#include <math.h>
#include <stdio.h>
#include <stdlib.h>
#include <string.h>

void main()
{
	int i,j,n=1,max,k,d;
	int a[300]={0};
	scanf("%d",&a[0]);
	for(i=1;getchar()!='\n';i++)
	{scanf("%d",&a[i]);
	n++;}
	
	max=a[0];
	for(i=0;i<n;i++)
		if(a[i]>max)
		max=a[i];
	for(i=0;i<n;i++)
	 if(a[i]==max)
	 a[i]=0;
	
	k=a[0];
	for(i=0;i<n;i++)
		if(a[i]>k)
			k=a[i];
		if(n==1)
			printf("No");
	
		else if(k!=0)
		printf("%d",k);
		else
		printf("No");



}