; ModuleID = '22/68.c'
source_filename = "22/68.c"
target datalayout = "e-m:e-p270:32:32-p271:32:32-p272:64:64-i64:64-f80:128-n8:16:32:64-S128"
target triple = "x86_64-pc-linux-gnu"

@.str = private unnamed_addr constant [3 x i8] c"%d\00", align 1
@.str.1 = private unnamed_addr constant [3 x i8] c"No\00", align 1

; Function Attrs: noinline nounwind uwtable
define dso_local void @main() #0 {
  %1 = alloca i32, align 4
  %2 = alloca i32, align 4
  %3 = alloca i32, align 4
  %4 = alloca i32, align 4
  %5 = alloca i32, align 4
  %6 = alloca i32, align 4
  %7 = alloca [300 x i32], align 16
  store i32 1, i32* %3, align 4
  %8 = bitcast [300 x i32]* %7 to i8*
  call void @llvm.memset.p0i8.i64(i8* align 16 %8, i8 0, i64 1200, i1 false)
  %9 = getelementptr inbounds [300 x i32], [300 x i32]* %7, i64 0, i64 0
  %10 = call i32 (i8*, ...) @__isoc99_scanf(i8* getelementptr inbounds ([3 x i8], [3 x i8]* @.str, i64 0, i64 0), i32* %9)
  store i32 1, i32* %1, align 4
  br label %11

11:                                               ; preds = %21, %0
  %12 = call i32 @getchar()
  %13 = icmp ne i32 %12, 10
  br i1 %13, label %14, label %24

14:                                               ; preds = %11
  %15 = load i32, i32* %1, align 4
  %16 = sext i32 %15 to i64
  %17 = getelementptr inbounds [300 x i32], [300 x i32]* %7, i64 0, i64 %16
  %18 = call i32 (i8*, ...) @__isoc99_scanf(i8* getelementptr inbounds ([3 x i8], [3 x i8]* @.str, i64 0, i64 0), i32* %17)
  %19 = load i32, i32* %3, align 4
  %20 = add nsw i32 %19, 1
  store i32 %20, i32* %3, align 4
  br label %21

21:                                               ; preds = %14
  %22 = load i32, i32* %1, align 4
  %23 = add nsw i32 %22, 1
  store i32 %23, i32* %1, align 4
  br label %11

24:                                               ; preds = %11
  %25 = getelementptr inbounds [300 x i32], [300 x i32]* %7, i64 0, i64 0
  %26 = load i32, i32* %25, align 16
  store i32 %26, i32* %4, align 4
  store i32 0, i32* %1, align 4
  br label %27

27:                                               ; preds = %44, %24
  %28 = load i32, i32* %1, align 4
  %29 = load i32, i32* %3, align 4
  %30 = icmp slt i32 %28, %29
  br i1 %30, label %31, label %47

31:                                               ; preds = %27
  %32 = load i32, i32* %1, align 4
  %33 = sext i32 %32 to i64
  %34 = getelementptr inbounds [300 x i32], [300 x i32]* %7, i64 0, i64 %33
  %35 = load i32, i32* %34, align 4
  %36 = load i32, i32* %4, align 4
  %37 = icmp sgt i32 %35, %36
  br i1 %37, label %38, label %43

38:                                               ; preds = %31
  %39 = load i32, i32* %1, align 4
  %40 = sext i32 %39 to i64
  %41 = getelementptr inbounds [300 x i32], [300 x i32]* %7, i64 0, i64 %40
  %42 = load i32, i32* %41, align 4
  store i32 %42, i32* %4, align 4
  br label %43

43:                                               ; preds = %38, %31
  br label %44

44:                                               ; preds = %43
  %45 = load i32, i32* %1, align 4
  %46 = add nsw i32 %45, 1
  store i32 %46, i32* %1, align 4
  br label %27

47:                                               ; preds = %27
  store i32 0, i32* %1, align 4
  br label %48

48:                                               ; preds = %64, %47
  %49 = load i32, i32* %1, align 4
  %50 = load i32, i32* %3, align 4
  %51 = icmp slt i32 %49, %50
  br i1 %51, label %52, label %67

52:                                               ; preds = %48
  %53 = load i32, i32* %1, align 4
  %54 = sext i32 %53 to i64
  %55 = getelementptr inbounds [300 x i32], [300 x i32]* %7, i64 0, i64 %54
  %56 = load i32, i32* %55, align 4
  %57 = load i32, i32* %4, align 4
  %58 = icmp eq i32 %56, %57
  br i1 %58, label %59, label %63

59:                                               ; preds = %52
  %60 = load i32, i32* %1, align 4
  %61 = sext i32 %60 to i64
  %62 = getelementptr inbounds [300 x i32], [300 x i32]* %7, i64 0, i64 %61
  store i32 0, i32* %62, align 4
  br label %63

63:                                               ; preds = %59, %52
  br label %64

64:                                               ; preds = %63
  %65 = load i32, i32* %1, align 4
  %66 = add nsw i32 %65, 1
  store i32 %66, i32* %1, align 4
  br label %48

67:                                               ; preds = %48
  %68 = getelementptr inbounds [300 x i32], [300 x i32]* %7, i64 0, i64 0
  %69 = load i32, i32* %68, align 16
  store i32 %69, i32* %5, align 4
  store i32 0, i32* %1, align 4
  br label %70

70:                                               ; preds = %87, %67
  %71 = load i32, i32* %1, align 4
  %72 = load i32, i32* %3, align 4
  %73 = icmp slt i32 %71, %72
  br i1 %73, label %74, label %90

74:                                               ; preds = %70
  %75 = load i32, i32* %1, align 4
  %76 = sext i32 %75 to i64
  %77 = getelementptr inbounds [300 x i32], [300 x i32]* %7, i64 0, i64 %76
  %78 = load i32, i32* %77, align 4
  %79 = load i32, i32* %5, align 4
  %80 = icmp sgt i32 %78, %79
  br i1 %80, label %81, label %86

81:                                               ; preds = %74
  %82 = load i32, i32* %1, align 4
  %83 = sext i32 %82 to i64
  %84 = getelementptr inbounds [300 x i32], [300 x i32]* %7, i64 0, i64 %83
  %85 = load i32, i32* %84, align 4
  store i32 %85, i32* %5, align 4
  br label %86

86:                                               ; preds = %81, %74
  br label %87

87:                                               ; preds = %86
  %88 = load i32, i32* %1, align 4
  %89 = add nsw i32 %88, 1
  store i32 %89, i32* %1, align 4
  br label %70

90:                                               ; preds = %70
  %91 = load i32, i32* %3, align 4
  %92 = icmp eq i32 %91, 1
  br i1 %92, label %93, label %95

93:                                               ; preds = %90
  %94 = call i32 (i8*, ...) @printf(i8* getelementptr inbounds ([3 x i8], [3 x i8]* @.str.1, i64 0, i64 0))
  br label %104

95:                                               ; preds = %90
  %96 = load i32, i32* %5, align 4
  %97 = icmp ne i32 %96, 0
  br i1 %97, label %98, label %101

98:                                               ; preds = %95
  %99 = load i32, i32* %5, align 4
  %100 = call i32 (i8*, ...) @printf(i8* getelementptr inbounds ([3 x i8], [3 x i8]* @.str, i64 0, i64 0), i32 %99)
  br label %103

101:                                              ; preds = %95
  %102 = call i32 (i8*, ...) @printf(i8* getelementptr inbounds ([3 x i8], [3 x i8]* @.str.1, i64 0, i64 0))
  br label %103

103:                                              ; preds = %101, %98
  br label %104

104:                                              ; preds = %103, %93
  ret void
}

; Function Attrs: argmemonly nounwind willreturn
declare void @llvm.memset.p0i8.i64(i8* nocapture writeonly, i8, i64, i1 immarg) #1

declare dso_local i32 @__isoc99_scanf(i8*, ...) #2

declare dso_local i32 @getchar() #2

declare dso_local i32 @printf(i8*, ...) #2


!llvm.module.flags = !{!0}
!llvm.ident = !{!1}

!0 = !{i32 1, !"wchar_size", i32 4}
!1 = !{!"clang version 10.0.0-4ubuntu1 "}
